target datalayout = "e-m:e-p270:32:32-p271:32:32-p272:64:64-i64:64-i128:128-f80:128-n8:16:32:64-S128"
target triple = "x86_64-pc-linux-gnu"

%struct.redisServer = type { i32, i64, ptr, ptr, ptr, i32, i32, i32, i32, i32, ptr, ptr, ptr, ptr, ptr, i32, i32, i32, i32, i64, i32, i32, i32, i32, ptr, i32, i32, [41 x i8], i32, i64, i32, i32, i32, ptr, ptr, i32, i32, i64, ptr, ptr, ptr, ptr, [2 x i32], i32, i32, i32, i32, i32, i32, [16 x ptr], i32, ptr, ptr, i32, [8 x %struct.connListener], i32, %struct.connListener, ptr, ptr, ptr, ptr, ptr, ptr, ptr, ptr, ptr, ptr, i32, ptr, i32, ptr, [3 x %struct.pause_event], [256 x i8], ptr, i64, i32, i32, [128 x i32], i32, i32, i64, i32, i32, i32, i32, i32, i64, i64, i64, i64, i64, i64, i64, i64, i64, i64, double, i64, i64, i64, i64, i64, i64, i64, i64, i64, i64, i64, i64, i64, i64, i64, i64, i64, i64, i64, i64, i64, double, i64, i64, i64, i64, i64, ptr, i64, i64, i64, %struct.malloc_stats, i64, i64, i64, i64, i64, i64, i64, i64, i64, i64, i64, i64, double, [4 x i64], i64, i64, i64, i64, [128 x i64], [128 x i64], i64, i64, [7 x %struct.anon], i64, i64, i64, i64, i64, i64, [4 x %struct.durationStats], i32, i32, i32, i32, i32, i32, i32, i32, i32, i32, i32, i32, i64, i32, i32, i32, i32, i64, i64, i32, i32, i32, i32, i32, ptr, [3 x %struct.clientBufferLimitsConfig], i32, i32, i32, ptr, i32, i32, i32, i32, i32, i32, ptr, ptr, i32, i32, i64, i64, i64, i64, i64, i32, i32, ptr, i32, i32, i64, i64, i64, i64, i64, i32, i32, i64, i32, i32, i32, i32, i32, i32, i32, i32, ptr, i32, i64, i64, i64, i64, i32, ptr, i32, ptr, i32, i32, i32, i64, i64, i64, i64, i32, i32, i32, i32, i32, i32, ptr, i32, i32, ptr, i32, i32, i32, [2 x i32], i32, %struct.redisOpArray, i32, ptr, i32, ptr, i32, i32, i32, i32, i32, i32, i32, [41 x i8], [41 x i8], i64, i64, i64, i64, i32, i32, ptr, i64, i64, %struct.replDataBuf, i64, i64, i32, i32, i32, i32, i32, i32, i32, i32, i32, i64, ptr, i64, ptr, ptr, ptr, i32, i32, ptr, ptr, i32, i32, i32, i64, i64, i64, i64, ptr, ptr, i32, ptr, i64, i32, i32, i32, i64, i32, i32, i32, i32, ptr, i32, i32, [41 x i8], i64, i32, ptr, i32, i32, i64, i64, i32, i32, i32, i32, i32, i64, [3 x i32], i32, i32, i32, [10 x i32], ptr, ptr, i32, i64, ptr, ptr, i32, i32, i32, i32, i64, i64, i64, i64, i64, i64, i64, i64, i64, i64, i32, i32, i64, i64, i32, i64, i64, i64, i64, i64, ptr, ptr, i32, ptr, i32, i32, i32, i32, i64, i64, ptr, ptr, i32, i32, i32, i32, i32, ptr, ptr, ptr, i32, i32, i32, i32, i32, i32, i32, i64, i32, i32, i64, i32, i32, i32, i32, i32, i32, i32, i64, ptr, ptr, i64, ptr, i32, %struct.aclInfo, i32, i64, i32, i32, i32, %struct.redisTLSContextConfig, ptr, ptr, ptr, ptr, ptr, i64, i32, ptr, i32, i32, i32, i64, i32, ptr }
%struct.connListener = type { [16 x i32], i32, ptr, i32, i32, ptr, ptr }
%struct.pause_event = type { i32, i64 }
%struct.malloc_stats = type { i64, i64, i64, i64, i64, i64, i64, i64, i64, i64, i64 }
%struct.anon = type { i64, i64, [16 x i64], i32 }
%struct.durationStats = type { i64, i64, i64 }
%struct.clientBufferLimitsConfig = type { i64, i64, i64 }
%struct.redisOpArray = type { ptr, i32, i32 }
%struct.replDataBuf = type { ptr, i64, i64, i64, i64 }
%struct.aclInfo = type { i64, i64, i64, i64 }
%struct.redisTLSContextConfig = type { ptr, ptr, ptr, ptr, ptr, ptr, ptr, ptr, ptr, ptr, ptr, ptr, i32, i32, i32, i32 }
%struct.sentinelState = type { [41 x i8], i64, ptr, i32, i32, i64, i64, ptr, ptr, i32, i64, i32, ptr, ptr, i32, i32 }
%struct.sentinelRedisInstance = type { i32, ptr, ptr, i64, ptr, ptr, i64, i64, i64, i64, i64, i64, i64, i64, i64, ptr, i32, i64, i64, ptr, ptr, i32, i32, ptr, ptr, i64, i32, i32, i64, ptr, ptr, i32, i32, i64, ptr, i64, i64, i32, i64, i64, i64, i64, ptr, ptr, ptr, ptr }

@server = external global %struct.redisServer, align 8
@sentinel = dso_local global %struct.sentinelState zeroinitializer, align 8
@.str.21 = private unnamed_addr constant [11 x i8] c"sentinel.c\00", align 1
@.str.54 = private unnamed_addr constant [3 x i8] c"%@\00", align 1
@sentinel_election_timeout = internal global i64 10000, align 8
@.str.412 = private unnamed_addr constant [52 x i8] c"Sentinel CRASH because of SENTINEL simulate-failure\00", align 1
@.str.429 = private unnamed_addr constant [28 x i8] c"-failover-abort-not-elected\00", align 1
@.str.430 = private unnamed_addr constant [16 x i8] c"+elected-leader\00", align 1
@.str.431 = private unnamed_addr constant [29 x i8] c"+failover-state-select-slave\00", align 1
@.str.442 = private unnamed_addr constant [37 x i8] c"ri->flags & SRI_FAILOVER_IN_PROGRESS\00", align 1
@.str.443 = private unnamed_addr constant [61 x i8] c"ri->failover_state <= SENTINEL_FAILOVER_STATE_WAIT_PROMOTION\00", align 1

; Function Attrs: nounwind uwtable
define dso_local void @sentinelSimFailureCrash() #0 {
  br label %1

1:                                                ; preds = %0
  %2 = load i32, ptr getelementptr inbounds nuw (%struct.redisServer, ptr @server, i32 0, i32 159), align 8, !tbaa !81
  %3 = icmp slt i32 3, %2
  br i1 %3, label %4, label %5

4:                                                ; preds = %1
  br label %6

5:                                                ; preds = %1
  call void (i32, ptr, ...) @_serverLog(i32 noundef 3, ptr noundef @.str.412)
  br label %6

6:                                                ; preds = %5, %4
  call void @exit(i32 noundef 99) #15
  unreachable
}

; Function Attrs: nounwind uwtable
define dso_local void @sentinelAbortFailover(ptr noundef %0) #0 {
  %2 = alloca ptr, align 8
  store ptr %0, ptr %2, align 8, !tbaa !11
  %3 = load ptr, ptr %2, align 8, !tbaa !11
  %4 = getelementptr inbounds nuw %struct.sentinelRedisInstance, ptr %3, i32 0, i32 0
  %5 = load i32, ptr %4, align 8, !tbaa !34
  %6 = and i32 %5, 64
  %7 = icmp ne i32 %6, 0
  %8 = xor i1 %7, true
  %9 = xor i1 %8, true
  %10 = zext i1 %9 to i32
  %11 = sext i32 %10 to i64
  %12 = call i64 @llvm.expect.i64(i64 %11, i64 1)
  %13 = icmp ne i64 %12, 0
  br i1 %13, label %14, label %15

14:                                               ; preds = %1
  br label %17

15:                                               ; preds = %1
  call void @_serverAssert(ptr noundef @.str.442, ptr noundef @.str.21, i32 noundef 5340)
  call void @abort() #15
  unreachable

16:                                               ; No predecessors!
  br label %17

17:                                               ; preds = %16, %14
  %18 = load ptr, ptr %2, align 8, !tbaa !11
  %19 = getelementptr inbounds nuw %struct.sentinelRedisInstance, ptr %18, i32 0, i32 37
  %20 = load i32, ptr %19, align 8, !tbaa !193
  %21 = icmp sle i32 %20, 4
  %22 = xor i1 %21, true
  %23 = xor i1 %22, true
  %24 = zext i1 %23 to i32
  %25 = sext i32 %24 to i64
  %26 = call i64 @llvm.expect.i64(i64 %25, i64 1)
  %27 = icmp ne i64 %26, 0
  br i1 %27, label %28, label %29

28:                                               ; preds = %17
  br label %31

29:                                               ; preds = %17
  call void @_serverAssert(ptr noundef @.str.443, ptr noundef @.str.21, i32 noundef 5341)
  call void @abort() #15
  unreachable

30:                                               ; No predecessors!
  br label %31

31:                                               ; preds = %30, %28
  %32 = load ptr, ptr %2, align 8, !tbaa !11
  %33 = getelementptr inbounds nuw %struct.sentinelRedisInstance, ptr %32, i32 0, i32 0
  %34 = load i32, ptr %33, align 8, !tbaa !34
  %35 = and i32 %34, -2113
  store i32 %35, ptr %33, align 8, !tbaa !34
  %36 = load ptr, ptr %2, align 8, !tbaa !11
  %37 = getelementptr inbounds nuw %struct.sentinelRedisInstance, ptr %36, i32 0, i32 37
  store i32 0, ptr %37, align 8, !tbaa !193
  %38 = call i64 @mstime()
  %39 = load ptr, ptr %2, align 8, !tbaa !11
  %40 = getelementptr inbounds nuw %struct.sentinelRedisInstance, ptr %39, i32 0, i32 38
  store i64 %38, ptr %40, align 8, !tbaa !194
  %41 = load ptr, ptr %2, align 8, !tbaa !11
  %42 = getelementptr inbounds nuw %struct.sentinelRedisInstance, ptr %41, i32 0, i32 42
  %43 = load ptr, ptr %42, align 8, !tbaa !36
  %44 = icmp ne ptr %43, null
  br i1 %44, label %45, label %54

45:                                               ; preds = %31
  %46 = load ptr, ptr %2, align 8, !tbaa !11
  %47 = getelementptr inbounds nuw %struct.sentinelRedisInstance, ptr %46, i32 0, i32 42
  %48 = load ptr, ptr %47, align 8, !tbaa !36
  %49 = getelementptr inbounds nuw %struct.sentinelRedisInstance, ptr %48, i32 0, i32 0
  %50 = load i32, ptr %49, align 8, !tbaa !34
  %51 = and i32 %50, -129
  store i32 %51, ptr %49, align 8, !tbaa !34
  %52 = load ptr, ptr %2, align 8, !tbaa !11
  %53 = getelementptr inbounds nuw %struct.sentinelRedisInstance, ptr %52, i32 0, i32 42
  store ptr null, ptr %53, align 8, !tbaa !36
  br label %54

54:                                               ; preds = %45, %31
  ret void
}

; Function Attrs: nounwind uwtable
define dso_local void @sentinelFailoverWaitStart(ptr noundef %0) #0 {
  %2 = alloca ptr, align 8
  %3 = alloca ptr, align 8
  %4 = alloca i32, align 4
  %5 = alloca i64, align 8
  %6 = alloca i32, align 4
  store ptr %0, ptr %2, align 8, !tbaa !11
  call void @llvm.lifetime.start.p0(i64 8, ptr %3) #16
  call void @llvm.lifetime.start.p0(i64 4, ptr %4) #16
  %7 = load ptr, ptr %2, align 8, !tbaa !11
  %8 = load ptr, ptr %2, align 8, !tbaa !11
  %9 = getelementptr inbounds nuw %struct.sentinelRedisInstance, ptr %8, i32 0, i32 36
  %10 = load i64, ptr %9, align 8, !tbaa !192
  %11 = call ptr @sentinelGetLeader(ptr noundef %7, i64 noundef %10)
  store ptr %11, ptr %3, align 8, !tbaa !93
  %12 = load ptr, ptr %3, align 8, !tbaa !93
  %13 = icmp ne ptr %12, null
  br i1 %13, label %14, label %18

14:                                               ; preds = %1
  %15 = load ptr, ptr %3, align 8, !tbaa !93
  %16 = call i32 @strcasecmp(ptr noundef %15, ptr noundef @sentinel) #19
  %17 = icmp eq i32 %16, 0
  br label %18

18:                                               ; preds = %14, %1
  %19 = phi i1 [ false, %1 ], [ %17, %14 ]
  %20 = zext i1 %19 to i32
  store i32 %20, ptr %4, align 4, !tbaa !82
  %21 = load ptr, ptr %3, align 8, !tbaa !93
  call void @sdsfree(ptr noundef %21)
  %22 = load i32, ptr %4, align 4, !tbaa !82
  %23 = icmp ne i32 %22, 0
  br i1 %23, label %53, label %24

24:                                               ; preds = %18
  %25 = load ptr, ptr %2, align 8, !tbaa !11
  %26 = getelementptr inbounds nuw %struct.sentinelRedisInstance, ptr %25, i32 0, i32 0
  %27 = load i32, ptr %26, align 8, !tbaa !34
  %28 = and i32 %27, 2048
  %29 = icmp ne i32 %28, 0
  br i1 %29, label %53, label %30

30:                                               ; preds = %24
  call void @llvm.lifetime.start.p0(i64 8, ptr %5) #16
  %31 = load i64, ptr @sentinel_election_timeout, align 8, !tbaa !119
  store i64 %31, ptr %5, align 8, !tbaa !119
  %32 = load i64, ptr %5, align 8, !tbaa !119
  %33 = load ptr, ptr %2, align 8, !tbaa !11
  %34 = getelementptr inbounds nuw %struct.sentinelRedisInstance, ptr %33, i32 0, i32 40
  %35 = load i64, ptr %34, align 8, !tbaa !196
  %36 = icmp sgt i64 %32, %35
  br i1 %36, label %37, label %41

37:                                               ; preds = %30
  %38 = load ptr, ptr %2, align 8, !tbaa !11
  %39 = getelementptr inbounds nuw %struct.sentinelRedisInstance, ptr %38, i32 0, i32 40
  %40 = load i64, ptr %39, align 8, !tbaa !196
  store i64 %40, ptr %5, align 8, !tbaa !119
  br label %41

41:                                               ; preds = %37, %30
  %42 = call i64 @mstime()
  %43 = load ptr, ptr %2, align 8, !tbaa !11
  %44 = getelementptr inbounds nuw %struct.sentinelRedisInstance, ptr %43, i32 0, i32 39
  %45 = load i64, ptr %44, align 8, !tbaa !195
  %46 = sub nsw i64 %42, %45
  %47 = load i64, ptr %5, align 8, !tbaa !119
  %48 = icmp sgt i64 %46, %47
  br i1 %48, label %49, label %52

49:                                               ; preds = %41
  %50 = load ptr, ptr %2, align 8, !tbaa !11
  call void (i32, ptr, ptr, ptr, ...) @sentinelEvent(i32 noundef 3, ptr noundef @.str.429, ptr noundef %50, ptr noundef @.str.54)
  %51 = load ptr, ptr %2, align 8, !tbaa !11
  call void @sentinelAbortFailover(ptr noundef %51)
  br label %52

52:                                               ; preds = %49, %41
  store i32 1, ptr %6, align 4
  call void @llvm.lifetime.end.p0(i64 8, ptr %5) #16
  br label %66

53:                                               ; preds = %24, %18
  %54 = load ptr, ptr %2, align 8, !tbaa !11
  call void (i32, ptr, ptr, ptr, ...) @sentinelEvent(i32 noundef 3, ptr noundef @.str.430, ptr noundef %54, ptr noundef @.str.54)
  %55 = load i64, ptr getelementptr inbounds nuw (%struct.sentinelState, ptr @sentinel, i32 0, i32 10), align 8, !tbaa !73
  %56 = and i64 %55, 1
  %57 = icmp ne i64 %56, 0
  br i1 %57, label %58, label %59

58:                                               ; preds = %53
  call void @sentinelSimFailureCrash()
  br label %59

59:                                               ; preds = %58, %53
  %60 = load ptr, ptr %2, align 8, !tbaa !11
  %61 = getelementptr inbounds nuw %struct.sentinelRedisInstance, ptr %60, i32 0, i32 37
  store i32 2, ptr %61, align 8, !tbaa !193
  %62 = call i64 @mstime()
  %63 = load ptr, ptr %2, align 8, !tbaa !11
  %64 = getelementptr inbounds nuw %struct.sentinelRedisInstance, ptr %63, i32 0, i32 38
  store i64 %62, ptr %64, align 8, !tbaa !194
  %65 = load ptr, ptr %2, align 8, !tbaa !11
  call void (i32, ptr, ptr, ptr, ...) @sentinelEvent(i32 noundef 3, ptr noundef @.str.431, ptr noundef %65, ptr noundef @.str.54)
  store i32 0, ptr %6, align 4
  br label %66

66:                                               ; preds = %59, %52
  call void @llvm.lifetime.end.p0(i64 4, ptr %4) #16
  call void @llvm.lifetime.end.p0(i64 8, ptr %3) #16
  %67 = load i32, ptr %6, align 4
  switch i32 %67, label %69 [
    i32 0, label %68
    i32 1, label %68
  ]

68:                                               ; preds = %66, %66
  ret void

69:                                               ; preds = %66
  unreachable
}