; Function Attrs: nounwind uwtable
define dso_local void @sentinelFailoverWaitStart(ptr noundef captures(address_is_null) %0) local_unnamed_addr #0 {
  %2 = getelementptr inbounds nuw i8, ptr %0, i64 264
  %3 = load i64, ptr %2, align 8, !tbaa !242
  %4 = tail call ptr @sentinelGetLeader(ptr noundef %0, i64 noundef %3)
  %.not = icmp eq ptr %4, null
  br i1 %.not, label %.critedge, label %5

5:                                                ; preds = %1
  %6 = tail call i32 @strcasecmp(ptr noundef nonnull %4, ptr noundef nonnull @sentinel) #34
  %7 = icmp eq i32 %6, 0
  tail call void @sdsfree(ptr noundef nonnull %4) #30
  br i1 %7, label %38, label %8

.critedge:                                        ; preds = %1
  tail call void @sdsfree(ptr noundef null) #30
  br label %8

8:                                                ; preds = %.critedge, %5
  %9 = load i32, ptr %0, align 8, !tbaa !34
  %10 = and i32 %9, 2048
  %.not20 = icmp eq i32 %10, 0
  br i1 %.not20, label %11, label %38

11:                                               ; preds = %8
  %12 = load i64, ptr @sentinel_election_timeout, align 8, !tbaa !107
  %13 = getelementptr inbounds nuw i8, ptr %0, i64 296
  %14 = load i64, ptr %13, align 8, !tbaa !164
  %spec.select = tail call i64 @llvm.smin.i64(i64 %12, i64 %14)
  %15 = tail call i64 @mstime() #30
  %16 = getelementptr inbounds nuw i8, ptr %0, i64 288
  %17 = load i64, ptr %16, align 8, !tbaa !277
  %18 = sub nsw i64 %15, %17
  %19 = icmp sgt i64 %18, %spec.select
  br i1 %19, label %20, label %sentinelAbortFailover.exit

20:                                               ; preds = %11
  tail call void (i32, ptr, ptr, ptr, ...) @sentinelEvent(i32 noundef 3, ptr noundef nonnull @.str.429, ptr noundef nonnull %0, ptr noundef nonnull @.str.54)
  %21 = load i32, ptr %0, align 8, !tbaa !34
  %22 = and i32 %21, 64
  %.not.i = icmp eq i32 %22, 0
  br i1 %.not.i, label %23, label %24, !prof !144

23:                                               ; preds = %20
  tail call void @_serverAssert(ptr noundef nonnull @.str.442, ptr noundef nonnull @.str.21, i32 noundef 5340) #30
  tail call void @abort() #35
  unreachable

24:                                               ; preds = %20
  %25 = getelementptr inbounds nuw i8, ptr %0, i64 272
  %26 = load i32, ptr %25, align 8, !tbaa !169
  %27 = icmp slt i32 %26, 5
  br i1 %27, label %29, label %28, !prof !103

28:                                               ; preds = %24
  tail call void @_serverAssert(ptr noundef nonnull @.str.443, ptr noundef nonnull @.str.21, i32 noundef 5341) #30
  tail call void @abort() #35
  unreachable

29:                                               ; preds = %24
  %30 = and i32 %21, -2113
  store i32 %30, ptr %0, align 8, !tbaa !34
  store i32 0, ptr %25, align 8, !tbaa !169
  %31 = tail call i64 @mstime() #30
  %32 = getelementptr inbounds nuw i8, ptr %0, i64 280
  store i64 %31, ptr %32, align 8, !tbaa !243
  %33 = getelementptr inbounds nuw i8, ptr %0, i64 312
  %34 = load ptr, ptr %33, align 8, !tbaa !36
  %.not8.i = icmp eq ptr %34, null
  br i1 %.not8.i, label %sentinelAbortFailover.exit, label %35

35:                                               ; preds = %29
  %36 = load i32, ptr %34, align 8, !tbaa !34
  %37 = and i32 %36, -129
  store i32 %37, ptr %34, align 8, !tbaa !34
  store ptr null, ptr %33, align 8, !tbaa !36
  br label %sentinelAbortFailover.exit

38:                                               ; preds = %8, %5
  tail call void (i32, ptr, ptr, ptr, ...) @sentinelEvent(i32 noundef 3, ptr noundef nonnull @.str.430, ptr noundef nonnull %0, ptr noundef nonnull @.str.54)
  %39 = load i64, ptr getelementptr inbounds nuw (i8, ptr @sentinel, i64 112), align 8, !tbaa !73
  %40 = and i64 %39, 1
  %.not21 = icmp eq i64 %40, 0
  br i1 %.not21, label %46, label %41

41:                                               ; preds = %38
  %42 = load i32, ptr getelementptr inbounds nuw (i8, ptr @server, i64 6288), align 8, !tbaa !77
  %43 = icmp sgt i32 %42, 3
  br i1 %43, label %45, label %44

44:                                               ; preds = %41
  tail call void (i32, ptr, ...) @_serverLog(i32 noundef 3, ptr noundef nonnull @.str.412) #30
  br label %45

45:                                               ; preds = %44, %41
  tail call void @exit(i32 noundef 99) #31
  unreachable

46:                                               ; preds = %38
  %47 = getelementptr inbounds nuw i8, ptr %0, i64 272
  store i32 2, ptr %47, align 8, !tbaa !169
  %48 = tail call i64 @mstime() #30
  %49 = getelementptr inbounds nuw i8, ptr %0, i64 280
  store i64 %48, ptr %49, align 8, !tbaa !243
  tail call void (i32, ptr, ptr, ptr, ...) @sentinelEvent(i32 noundef 3, ptr noundef nonnull @.str.431, ptr noundef nonnull %0, ptr noundef nonnull @.str.54)
  br label %sentinelAbortFailover.exit

sentinelAbortFailover.exit:                       ; preds = %35, %29, %11, %46
  ret void
}